; Function Attrs: mustprogress nofree norecurse nosync nounwind willreturn memory(read, inaccessiblemem: none) uwtable
define noundef double @_ZN5Ipopt16AdaptiveMuUpdate11max_ref_valEv(ptr noundef nonnull readonly align 8 dereferenceable(312) %0) local_unnamed_addr #8 align 2 {
  %2 = getelementptr inbounds i8, ptr %0, i64 232
  %3 = load ptr, ptr %2, align 8
  %4 = getelementptr inbounds i8, ptr %3, i64 16
  %5 = load double, ptr %4, align 8
  %.sroa.03.08 = load ptr, ptr %3, align 8
  %.not9 = icmp eq ptr %.sroa.03.08, %2
  br i1 %.not9, label %._crit_edge, label %.lr.ph

.lr.ph:                                           ; preds = %1, %.lr.ph
  %.sroa.03.011 = phi ptr [ %.sroa.03.0, %.lr.ph ], [ %.sroa.03.08, %1 ]
  %.010 = phi double [ %.sroa.speculated.i, %.lr.ph ], [ %5, %1 ]
  %6 = getelementptr inbounds i8, ptr %.sroa.03.011, i64 16
  %7 = load double, ptr %6, align 8
  %8 = fcmp olt double %.010, %7
  %.sroa.speculated.i = select i1 %8, double %7, double %.010
  %.sroa.03.0 = load ptr, ptr %.sroa.03.011, align 8
  %.not = icmp eq ptr %.sroa.03.0, %2
  br i1 %.not, label %._crit_edge, label %.lr.ph, !llvm.loop !199

._crit_edge:                                      ; preds = %.lr.ph, %1
  %.0.lcssa = phi double [ %5, %1 ], [ %.sroa.speculated.i, %.lr.ph ]
  ret double %.0.lcssa
}